target datalayout = "e-m:e-p270:32:32-p271:32:32-p272:64:64-i64:64-i128:128-f80:128-n8:16:32:64-S128"
target triple = "x86_64-pc-linux-gnu"

%struct._smb2_seskey_field_t = type { ptr, i32, ptr, i32, ptr, i32, ptr, i32 }

; Function Attrs: null_pointer_is_valid sspstrong uwtable
define internal void @seskey_list_seskey_set_cb(ptr noundef %0, ptr noundef %1, i32 noundef %2, ptr noundef %3, ptr noundef %4) #0 {
  %6 = alloca ptr, align 8
  %7 = alloca ptr, align 8
  %8 = alloca i32, align 4
  %9 = alloca ptr, align 8
  %10 = alloca ptr, align 8
  %11 = alloca ptr, align 8
  store ptr %0, ptr %6, align 8
  store ptr %1, ptr %7, align 8
  store i32 %2, ptr %8, align 4
  store ptr %3, ptr %9, align 8
  store ptr %4, ptr %10, align 8
  call void @llvm.lifetime.start.p0(i64 8, ptr %11) #13
  %12 = load i32, ptr %8, align 4
  %13 = icmp ne i32 %12, 0
  br i1 %13, label %14, label %19

14:                                               ; preds = %5
  %15 = load ptr, ptr %7, align 8
  %16 = load i32, ptr %8, align 4
  %17 = zext i32 %16 to i64
  %18 = call ptr @g_memdup2(ptr noundef %15, i64 noundef %17) #14
  br label %20

19:                                               ; preds = %5
  br label %20

20:                                               ; preds = %19, %14
  %21 = phi ptr [ %18, %14 ], [ null, %19 ]
  store ptr %21, ptr %11, align 8
  %22 = load ptr, ptr %6, align 8
  %23 = getelementptr inbounds nuw %struct._smb2_seskey_field_t, ptr %22, i32 0, i32 2
  %24 = load ptr, ptr %23, align 8
  call void @g_free(ptr noundef %24)
  %25 = load ptr, ptr %11, align 8
  %26 = load ptr, ptr %6, align 8
  %27 = getelementptr inbounds nuw %struct._smb2_seskey_field_t, ptr %26, i32 0, i32 2
  store ptr %25, ptr %27, align 8
  %28 = load i32, ptr %8, align 4
  %29 = load ptr, ptr %6, align 8
  %30 = getelementptr inbounds nuw %struct._smb2_seskey_field_t, ptr %29, i32 0, i32 3
  store i32 %28, ptr %30, align 8
  call void @llvm.lifetime.end.p0(i64 8, ptr %11) #13
  ret void
}